; Function Attrs: nofree norecurse nosync nounwind memory(readwrite, inaccessiblemem: none) uwtable
define void @swri_noise_shaping_float(ptr noundef captures(none) %0, ptr noundef readonly captures(none) %1, ptr noundef readonly captures(none) %2, ptr noundef readonly captures(none) %3, i32 noundef %4) local_unnamed_addr #6 {
  %6 = getelementptr inbounds nuw i8, ptr %0, i64 276
  %7 = load i32, ptr %6, align 4, !tbaa !33
  %8 = getelementptr inbounds nuw i8, ptr %0, i64 264
  %9 = load i32, ptr %8, align 8, !tbaa !42
  %10 = getelementptr inbounds nuw i8, ptr %0, i64 272
  %11 = load float, ptr %10, align 8, !tbaa !35
  %12 = getelementptr inbounds nuw i8, ptr %2, i64 520
  %13 = load i32, ptr %12, align 8, !tbaa !47
  %14 = icmp sgt i32 %13, 0
  br i1 %14, label %.lr.ph, label %._crit_edge

.lr.ph:                                           ; preds = %5
  %15 = getelementptr inbounds nuw i8, ptr %0, i64 268
  %16 = load float, ptr %15, align 4, !tbaa !34
  %17 = getelementptr inbounds nuw i8, ptr %0, i64 252
  %18 = load i32, ptr %17, align 4, !tbaa !48
  %19 = sext i32 %18 to i64
  %20 = getelementptr inbounds nuw i8, ptr %0, i64 360
  %21 = getelementptr inbounds nuw i8, ptr %0, i64 280
  %22 = icmp sgt i32 %4, 0
  %23 = add nsw i32 %9, -2
  %24 = fpext nsz float %16 to double
  %25 = icmp sgt i32 %9, 0
  br i1 %22, label %.lr.ph.split.us, label %._crit_edge

.lr.ph.split.us:                                  ; preds = %.lr.ph
  %26 = icmp sgt i32 %9, 2
  br i1 %26, label %.lr.ph86.us.us.preheader, label %.lr.ph86.us.preheader

.lr.ph86.us.preheader:                            ; preds = %.lr.ph.split.us
  %wide.trip.count109 = zext nneg i32 %13 to i64
  %wide.trip.count = zext nneg i32 %4 to i64
  br label %.lr.ph86.us

.lr.ph86.us.us.preheader:                         ; preds = %.lr.ph.split.us
  %27 = zext nneg i32 %23 to i64
  %wide.trip.count122 = zext nneg i32 %13 to i64
  %wide.trip.count117 = zext nneg i32 %4 to i64
  br label %.lr.ph86.us.us

.lr.ph86.us.us:                                   ; preds = %.lr.ph86.us.us.preheader, %._crit_edge87.split.us.us.us
  %indvars.iv119 = phi i64 [ 0, %.lr.ph86.us.us.preheader ], [ %indvars.iv.next120, %._crit_edge87.split.us.us.us ]
  %28 = getelementptr inbounds nuw [64 x ptr], ptr %3, i64 0, i64 %indvars.iv119
  %29 = load ptr, ptr %28, align 8, !tbaa !49
  %30 = getelementptr inbounds float, ptr %29, i64 %19
  %31 = getelementptr inbounds nuw [64 x ptr], ptr %2, i64 0, i64 %indvars.iv119
  %32 = load ptr, ptr %31, align 8, !tbaa !49
  %33 = getelementptr inbounds nuw [64 x ptr], ptr %1, i64 0, i64 %indvars.iv119
  %34 = load ptr, ptr %33, align 8, !tbaa !49
  %35 = getelementptr inbounds nuw [64 x [40 x float]], ptr %20, i64 0, i64 %indvars.iv119
  br label %.lr.ph.us.us.us

.lr.ph.us.us.us:                                  ; preds = %52, %.lr.ph86.us.us
  %indvars.iv114 = phi i64 [ %indvars.iv.next115, %52 ], [ 0, %.lr.ph86.us.us ]
  %.17684.us.us.us = phi i32 [ %53, %52 ], [ %7, %.lr.ph86.us.us ]
  %36 = getelementptr inbounds nuw float, ptr %32, i64 %indvars.iv114
  %37 = load float, ptr %36, align 4, !tbaa !29
  %38 = fmul nsz float %11, %37
  %39 = fpext nsz float %38 to double
  %40 = sext i32 %.17684.us.us.us to i64
  %invariant.gep = getelementptr float, ptr %35, i64 %40
  br label %69

41:                                               ; preds = %._crit_edge.us.us.us
  %42 = and i64 %indvars.iv.next112, 4294967292
  %43 = getelementptr inbounds nuw float, ptr %21, i64 %42
  %44 = load float, ptr %43, align 4, !tbaa !29
  %45 = add nsw i32 %.17684.us.us.us, %92
  %46 = sext i32 %45 to i64
  %47 = getelementptr inbounds float, ptr %35, i64 %46
  %48 = load float, ptr %47, align 4, !tbaa !29
  %49 = fmul nsz float %44, %48
  %50 = fpext nsz float %49 to double
  %51 = fsub nsz double %90, %50
  br label %52

52:                                               ; preds = %._crit_edge.us.us.us, %41
  %.1.us.us.us = phi nsz double [ %51, %41 ], [ %90, %._crit_edge.us.us.us ]
  %.not.us.us.us = icmp eq i32 %.17684.us.us.us, 0
  %.v.us.us.us = select i1 %.not.us.us.us, i32 %9, i32 %.17684.us.us.us
  %53 = add nsw i32 %.v.us.us.us, -1
  %54 = getelementptr inbounds nuw float, ptr %30, i64 %indvars.iv114
  %55 = load float, ptr %54, align 4, !tbaa !29
  %56 = fpext nsz float %55 to double
  %57 = fadd nsz double %.1.us.us.us, %56
  %58 = tail call nsz double @llvm.rint.f64(double %57)
  %59 = fsub nsz double %58, %.1.us.us.us
  %60 = fptrunc nsz double %59 to float
  %61 = sext i32 %53 to i64
  %62 = getelementptr inbounds float, ptr %35, i64 %61
  store float %60, ptr %62, align 4, !tbaa !29
  %63 = add nsw i32 %53, %9
  %64 = sext i32 %63 to i64
  %65 = getelementptr inbounds float, ptr %35, i64 %64
  store float %60, ptr %65, align 4, !tbaa !29
  %66 = fmul nsz double %58, %24
  %67 = fptrunc nsz double %66 to float
  %68 = getelementptr inbounds nuw float, ptr %34, i64 %indvars.iv114
  store float %67, ptr %68, align 4, !tbaa !29
  %indvars.iv.next115 = add nuw nsw i64 %indvars.iv114, 1
  %exitcond118.not = icmp eq i64 %indvars.iv.next115, %wide.trip.count117
  br i1 %exitcond118.not, label %._crit_edge87.split.us.us.us, label %.lr.ph.us.us.us, !llvm.loop !56

69:                                               ; preds = %69, %.lr.ph.us.us.us
  %indvars.iv111 = phi i64 [ %indvars.iv.next112, %69 ], [ 0, %.lr.ph.us.us.us ]
  %.081.us.us.us = phi double [ %90, %69 ], [ %39, %.lr.ph.us.us.us ]
  %70 = getelementptr inbounds nuw float, ptr %21, i64 %indvars.iv111
  %71 = load float, ptr %70, align 4, !tbaa !29
  %gep = getelementptr float, ptr %invariant.gep, i64 %indvars.iv111
  %72 = load float, ptr %gep, align 4, !tbaa !29
  %73 = getelementptr inbounds nuw i8, ptr %70, i64 4
  %74 = load float, ptr %73, align 4, !tbaa !29
  %75 = getelementptr i8, ptr %gep, i64 4
  %76 = load float, ptr %75, align 4, !tbaa !29
  %77 = fmul nsz float %74, %76
  %78 = tail call nsz float @llvm.fmuladd.f32(float %71, float %72, float %77)
  %79 = getelementptr inbounds nuw i8, ptr %70, i64 8
  %80 = load float, ptr %79, align 4, !tbaa !29
  %81 = getelementptr i8, ptr %gep, i64 8
  %82 = load float, ptr %81, align 4, !tbaa !29
  %83 = tail call nsz float @llvm.fmuladd.f32(float %80, float %82, float %78)
  %84 = getelementptr inbounds nuw i8, ptr %70, i64 12
  %85 = load float, ptr %84, align 4, !tbaa !29
  %86 = getelementptr i8, ptr %gep, i64 12
  %87 = load float, ptr %86, align 4, !tbaa !29
  %88 = tail call nsz float @llvm.fmuladd.f32(float %85, float %87, float %83)
  %89 = fpext nsz float %88 to double
  %90 = fsub nsz double %.081.us.us.us, %89
  %indvars.iv.next112 = add nuw nsw i64 %indvars.iv111, 4
  %91 = icmp samesign ult i64 %indvars.iv.next112, %27
  br i1 %91, label %69, label %._crit_edge.us.us.us, !llvm.loop !57

._crit_edge.us.us.us:                             ; preds = %69
  %92 = trunc nuw nsw i64 %indvars.iv.next112 to i32
  %93 = icmp sgt i32 %9, %92
  br i1 %93, label %41, label %52

._crit_edge87.split.us.us.us:                     ; preds = %52
  %indvars.iv.next120 = add nuw nsw i64 %indvars.iv119, 1
  %exitcond123.not = icmp eq i64 %indvars.iv.next120, %wide.trip.count122
  br i1 %exitcond123.not, label %._crit_edge, label %.lr.ph86.us.us, !llvm.loop !58

.lr.ph86.us:                                      ; preds = %.lr.ph86.us.preheader, %._crit_edge87.split.us95
  %indvars.iv106 = phi i64 [ 0, %.lr.ph86.us.preheader ], [ %indvars.iv.next107, %._crit_edge87.split.us95 ]
  %94 = getelementptr inbounds nuw [64 x ptr], ptr %3, i64 0, i64 %indvars.iv106
  %95 = load ptr, ptr %94, align 8, !tbaa !49
  %96 = getelementptr inbounds float, ptr %95, i64 %19
  %97 = getelementptr inbounds nuw [64 x ptr], ptr %2, i64 0, i64 %indvars.iv106
  %98 = load ptr, ptr %97, align 8, !tbaa !49
  %99 = getelementptr inbounds nuw [64 x ptr], ptr %1, i64 0, i64 %indvars.iv106
  %100 = load ptr, ptr %99, align 8, !tbaa !49
  %101 = getelementptr inbounds nuw [64 x [40 x float]], ptr %20, i64 0, i64 %indvars.iv106
  br label %102

102:                                              ; preds = %.lr.ph86.us, %115
  %indvars.iv = phi i64 [ 0, %.lr.ph86.us ], [ %indvars.iv.next, %115 ]
  %.17684.us90 = phi i32 [ %7, %.lr.ph86.us ], [ %116, %115 ]
  %103 = getelementptr inbounds nuw float, ptr %98, i64 %indvars.iv
  %104 = load float, ptr %103, align 4, !tbaa !29
  %105 = fmul nsz float %11, %104
  %106 = fpext nsz float %105 to double
  br i1 %25, label %107, label %115

107:                                              ; preds = %102
  %108 = load float, ptr %21, align 4, !tbaa !29
  %109 = sext i32 %.17684.us90 to i64
  %110 = getelementptr inbounds float, ptr %101, i64 %109
  %111 = load float, ptr %110, align 4, !tbaa !29
  %112 = fmul nsz float %108, %111
  %113 = fpext nsz float %112 to double
  %114 = fsub nsz double %106, %113
  br label %115

115:                                              ; preds = %107, %102
  %.1.us92 = phi nsz double [ %114, %107 ], [ %106, %102 ]
  %.not.us93 = icmp eq i32 %.17684.us90, 0
  %.v.us94 = select i1 %.not.us93, i32 %9, i32 %.17684.us90
  %116 = add nsw i32 %.v.us94, -1
  %117 = getelementptr inbounds nuw float, ptr %96, i64 %indvars.iv
  %118 = load float, ptr %117, align 4, !tbaa !29
  %119 = fpext nsz float %118 to double
  %120 = fadd nsz double %.1.us92, %119
  %121 = tail call nsz double @llvm.rint.f64(double %120)
  %122 = fsub nsz double %121, %.1.us92
  %123 = fptrunc nsz double %122 to float
  %124 = sext i32 %116 to i64
  %125 = getelementptr inbounds float, ptr %101, i64 %124
  store float %123, ptr %125, align 4, !tbaa !29
  %126 = add nsw i32 %116, %9
  %127 = sext i32 %126 to i64
  %128 = getelementptr inbounds float, ptr %101, i64 %127
  store float %123, ptr %128, align 4, !tbaa !29
  %129 = fmul nsz double %121, %24
  %130 = fptrunc nsz double %129 to float
  %131 = getelementptr inbounds nuw float, ptr %100, i64 %indvars.iv
  store float %130, ptr %131, align 4, !tbaa !29
  %indvars.iv.next = add nuw nsw i64 %indvars.iv, 1
  %exitcond.not = icmp eq i64 %indvars.iv.next, %wide.trip.count
  br i1 %exitcond.not, label %._crit_edge87.split.us95, label %102, !llvm.loop !56

._crit_edge87.split.us95:                         ; preds = %115
  %indvars.iv.next107 = add nuw nsw i64 %indvars.iv106, 1
  %exitcond110.not = icmp eq i64 %indvars.iv.next107, %wide.trip.count109
  br i1 %exitcond110.not, label %._crit_edge, label %.lr.ph86.us, !llvm.loop !58

._crit_edge:                                      ; preds = %._crit_edge87.split.us95, %._crit_edge87.split.us.us.us, %.lr.ph, %5
  %.075.lcssa = phi i32 [ %7, %5 ], [ %7, %.lr.ph ], [ %53, %._crit_edge87.split.us.us.us ], [ %116, %._crit_edge87.split.us95 ]
  store i32 %.075.lcssa, ptr %6, align 4, !tbaa !33
  ret void
}